target datalayout = "e-m:e-p270:32:32-p271:32:32-p272:64:64-i64:64-i128:128-f80:128-n8:16:32:64-S128"
target triple = "x86_64-pc-linux-gnu"

%struct.CRYPTO_REF_COUNT = type { i32 }
%struct.crypto_ex_data_st = type { ptr, ptr }
%struct.OSSL_TIME = type { i64 }
%struct.srp_ctx_st = type { ptr, ptr, ptr, ptr, ptr, ptr, ptr, ptr, ptr, ptr, ptr, ptr, ptr, ptr, i32, i64 }
%struct.ssl_ctx_st = type { ptr, ptr, ptr, ptr, ptr, ptr, ptr, i64, ptr, ptr, i32, %struct.OSSL_TIME, ptr, ptr, ptr, %struct.anon.3, %struct.CRYPTO_REF_COUNT, ptr, ptr, ptr, ptr, ptr, ptr, ptr, ptr, ptr, %struct.crypto_ex_data_st, ptr, ptr, ptr, ptr, ptr, ptr, ptr, i64, i32, i32, i32, i64, ptr, ptr, i32, ptr, ptr, i32, i64, [32 x i8], ptr, ptr, ptr, i32, ptr, ptr, ptr, i64, i64, i64, i64, ptr, ptr, ptr, ptr, ptr, %struct.anon.4, ptr, ptr, ptr, ptr, %struct.srp_ctx_st, %struct.dane_ctx_st, ptr, ptr, ptr, ptr, i32, i32, ptr, ptr, i64, i64, ptr, ptr, ptr, i64, ptr, ptr, i32, ptr, ptr, ptr, [14 x i32], [24 x ptr], [14 x ptr], [14 x i64], i64, ptr, ptr, ptr, i64, i64, ptr, i64, i64, i32, i32, i32, i32, ptr, i64, ptr, i64, i64, ptr, ptr }
%struct.anon.3 = type { i32, i32, i32, i32, i32, i32, i32, i32, i32, i32, i32 }
%struct.anon.4 = type { ptr, ptr, [16 x i8], ptr, ptr, ptr, ptr, ptr, i32, i8, i64, ptr, i64, ptr, i64, ptr, i64, ptr, ptr, i64, ptr, ptr, ptr, i64, ptr, ptr, ptr, ptr, [32 x i8] }
%struct.dane_ctx_st = type { ptr, ptr, i8, i64 }

@.str = private unnamed_addr constant [25 x i8] c"../openssl/ssl/ssl_rsa.c\00", align 1
@__func__.SSL_CTX_use_certificate_file = private unnamed_addr constant [29 x i8] c"SSL_CTX_use_certificate_file\00", align 1

; Function Attrs: nounwind uwtable
define i32 @SSL_CTX_use_certificate_file(ptr noundef %0, ptr noundef %1, i32 noundef %2) #0 {
  %4 = alloca ptr, align 8
  %5 = alloca ptr, align 8
  %6 = alloca i32, align 4
  %7 = alloca i32, align 4
  %8 = alloca ptr, align 8
  %9 = alloca i32, align 4
  %10 = alloca ptr, align 8
  %11 = alloca ptr, align 8
  store ptr %0, ptr %4, align 8, !tbaa !76
  store ptr %1, ptr %5, align 8, !tbaa !87
  store i32 %2, ptr %6, align 4, !tbaa !21
  call void @llvm.lifetime.start.p0(i64 4, ptr %7) #6
  store i32 384, ptr %7, align 4, !tbaa !21
  call void @llvm.lifetime.start.p0(i64 8, ptr %8) #6
  store ptr null, ptr %8, align 8, !tbaa !88
  call void @llvm.lifetime.start.p0(i64 4, ptr %9) #6
  store i32 0, ptr %9, align 4, !tbaa !21
  call void @llvm.lifetime.start.p0(i64 8, ptr %10) #6
  store ptr null, ptr %10, align 8, !tbaa !8
  call void @llvm.lifetime.start.p0(i64 8, ptr %11) #6
  store ptr null, ptr %11, align 8, !tbaa !8
  %12 = load ptr, ptr %5, align 8, !tbaa !87
  %13 = icmp eq ptr %12, null
  br i1 %13, label %14, label %15

14:                                               ; preds = %3
  call void @ERR_new()
  call void @ERR_set_debug(ptr noundef @.str, i32 noundef 315, ptr noundef @__func__.SSL_CTX_use_certificate_file)
  call void (i32, i32, ptr, ...) @ERR_set_error(i32 noundef 20, i32 noundef 786690, ptr noundef null)
  br label %68

15:                                               ; preds = %3
  %16 = call ptr @BIO_s_file()
  %17 = call ptr @BIO_new(ptr noundef %16)
  store ptr %17, ptr %8, align 8, !tbaa !88
  %18 = load ptr, ptr %8, align 8, !tbaa !88
  %19 = icmp eq ptr %18, null
  br i1 %19, label %20, label %21

20:                                               ; preds = %15
  call void @ERR_new()
  call void @ERR_set_debug(ptr noundef @.str, i32 noundef 321, ptr noundef @__func__.SSL_CTX_use_certificate_file)
  call void (i32, i32, ptr, ...) @ERR_set_error(i32 noundef 20, i32 noundef 524295, ptr noundef null)
  br label %68

21:                                               ; preds = %15
  %22 = load ptr, ptr %8, align 8, !tbaa !88
  %23 = load ptr, ptr %5, align 8, !tbaa !87
  %24 = call i64 @BIO_ctrl(ptr noundef %22, i32 noundef 108, i64 noundef 3, ptr noundef %23)
  %25 = trunc i64 %24 to i32
  %26 = icmp sle i32 %25, 0
  br i1 %26, label %27, label %28

27:                                               ; preds = %21
  call void @ERR_new()
  call void @ERR_set_debug(ptr noundef @.str, i32 noundef 326, ptr noundef @__func__.SSL_CTX_use_certificate_file)
  call void (i32, i32, ptr, ...) @ERR_set_error(i32 noundef 20, i32 noundef 524290, ptr noundef null)
  br label %68

28:                                               ; preds = %21
  %29 = load ptr, ptr %4, align 8, !tbaa !76
  %30 = getelementptr inbounds nuw %struct.ssl_ctx_st, ptr %29, i32 0, i32 0
  %31 = load ptr, ptr %30, align 8, !tbaa !90
  %32 = load ptr, ptr %4, align 8, !tbaa !76
  %33 = getelementptr inbounds nuw %struct.ssl_ctx_st, ptr %32, i32 0, i32 89
  %34 = load ptr, ptr %33, align 8, !tbaa !104
  %35 = call ptr @X509_new_ex(ptr noundef %31, ptr noundef %34)
  store ptr %35, ptr %10, align 8, !tbaa !8
  %36 = load ptr, ptr %10, align 8, !tbaa !8
  %37 = icmp eq ptr %36, null
  br i1 %37, label %38, label %39

38:                                               ; preds = %28
  call void @ERR_new()
  call void @ERR_set_debug(ptr noundef @.str, i32 noundef 332, ptr noundef @__func__.SSL_CTX_use_certificate_file)
  call void (i32, i32, ptr, ...) @ERR_set_error(i32 noundef 20, i32 noundef 524301, ptr noundef null)
  br label %68

39:                                               ; preds = %28
  %40 = load i32, ptr %6, align 4, !tbaa !21
  %41 = icmp eq i32 %40, 2
  br i1 %41, label %42, label %45

42:                                               ; preds = %39
  store i32 524301, ptr %7, align 4, !tbaa !21
  %43 = load ptr, ptr %8, align 8, !tbaa !88
  %44 = call ptr @d2i_X509_bio(ptr noundef %43, ptr noundef %10)
  store ptr %44, ptr %11, align 8, !tbaa !8
  br label %59

45:                                               ; preds = %39
  %46 = load i32, ptr %6, align 4, !tbaa !21
  %47 = icmp eq i32 %46, 1
  br i1 %47, label %48, label %57

48:                                               ; preds = %45
  store i32 524297, ptr %7, align 4, !tbaa !21
  %49 = load ptr, ptr %8, align 8, !tbaa !88
  %50 = load ptr, ptr %4, align 8, !tbaa !76
  %51 = getelementptr inbounds nuw %struct.ssl_ctx_st, ptr %50, i32 0, i32 19
  %52 = load ptr, ptr %51, align 8, !tbaa !108
  %53 = load ptr, ptr %4, align 8, !tbaa !76
  %54 = getelementptr inbounds nuw %struct.ssl_ctx_st, ptr %53, i32 0, i32 20
  %55 = load ptr, ptr %54, align 8, !tbaa !109
  %56 = call ptr @PEM_read_bio_X509(ptr noundef %49, ptr noundef %10, ptr noundef %52, ptr noundef %55)
  store ptr %56, ptr %11, align 8, !tbaa !8
  br label %58

57:                                               ; preds = %45
  call void @ERR_new()
  call void @ERR_set_debug(ptr noundef @.str, i32 noundef 343, ptr noundef @__func__.SSL_CTX_use_certificate_file)
  call void (i32, i32, ptr, ...) @ERR_set_error(i32 noundef 20, i32 noundef 124, ptr noundef null)
  br label %68

58:                                               ; preds = %48
  br label %59

59:                                               ; preds = %58, %42
  %60 = load ptr, ptr %11, align 8, !tbaa !8
  %61 = icmp eq ptr %60, null
  br i1 %61, label %62, label %64

62:                                               ; preds = %59
  call void @ERR_new()
  call void @ERR_set_debug(ptr noundef @.str, i32 noundef 347, ptr noundef @__func__.SSL_CTX_use_certificate_file)
  %63 = load i32, ptr %7, align 4, !tbaa !21
  call void (i32, i32, ptr, ...) @ERR_set_error(i32 noundef 20, i32 noundef %63, ptr noundef null)
  br label %68

64:                                               ; preds = %59
  %65 = load ptr, ptr %4, align 8, !tbaa !76
  %66 = load ptr, ptr %10, align 8, !tbaa !8
  %67 = call i32 @SSL_CTX_use_certificate(ptr noundef %65, ptr noundef %66)
  store i32 %67, ptr %9, align 4, !tbaa !21
  br label %68

68:                                               ; preds = %64, %62, %57, %38, %27, %20, %14
  %69 = load ptr, ptr %10, align 8, !tbaa !8
  call void @X509_free(ptr noundef %69)
  %70 = load ptr, ptr %8, align 8, !tbaa !88
  %71 = call i32 @BIO_free(ptr noundef %70)
  %72 = load i32, ptr %9, align 4, !tbaa !21
  call void @llvm.lifetime.end.p0(i64 8, ptr %11) #6
  call void @llvm.lifetime.end.p0(i64 8, ptr %10) #6
  call void @llvm.lifetime.end.p0(i64 4, ptr %9) #6
  call void @llvm.lifetime.end.p0(i64 8, ptr %8) #6
  call void @llvm.lifetime.end.p0(i64 4, ptr %7) #6
  ret i32 %72
}