; Function Attrs: nounwind uwtable
define range(i32 0, 2) i32 @SSL_CTX_use_certificate_file(ptr noundef %0, ptr noundef %1, i32 noundef %2) local_unnamed_addr #0 {
  %4 = alloca ptr, align 8
  call void @llvm.lifetime.start.p0(i64 8, ptr nonnull %4) #6
  store ptr null, ptr %4, align 8, !tbaa !80
  %5 = icmp eq ptr %1, null
  br i1 %5, label %6, label %7

6:                                                ; preds = %3
  tail call void @ERR_new() #6
  tail call void @ERR_set_debug(ptr noundef nonnull @.str, i32 noundef 315, ptr noundef nonnull @__func__.SSL_CTX_use_certificate_file) #6
  tail call void (i32, i32, ptr, ...) @ERR_set_error(i32 noundef 20, i32 noundef 786690, ptr noundef null) #6
  br label %40

7:                                                ; preds = %3
  %8 = tail call ptr @BIO_s_file() #6
  %9 = tail call ptr @BIO_new(ptr noundef %8) #6
  %10 = icmp eq ptr %9, null
  br i1 %10, label %11, label %12

11:                                               ; preds = %7
  tail call void @ERR_new() #6
  tail call void @ERR_set_debug(ptr noundef nonnull @.str, i32 noundef 321, ptr noundef nonnull @__func__.SSL_CTX_use_certificate_file) #6
  tail call void (i32, i32, ptr, ...) @ERR_set_error(i32 noundef 20, i32 noundef 524295, ptr noundef null) #6
  br label %40

12:                                               ; preds = %7
  %13 = tail call i64 @BIO_ctrl(ptr noundef nonnull %9, i32 noundef 108, i64 noundef 3, ptr noundef nonnull %1) #6
  %14 = trunc i64 %13 to i32
  %15 = icmp slt i32 %14, 1
  br i1 %15, label %16, label %17

16:                                               ; preds = %12
  tail call void @ERR_new() #6
  tail call void @ERR_set_debug(ptr noundef nonnull @.str, i32 noundef 326, ptr noundef nonnull @__func__.SSL_CTX_use_certificate_file) #6
  tail call void (i32, i32, ptr, ...) @ERR_set_error(i32 noundef 20, i32 noundef 524290, ptr noundef null) #6
  br label %40

17:                                               ; preds = %12
  %18 = load ptr, ptr %0, align 8, !tbaa !82
  %19 = getelementptr inbounds nuw i8, ptr %0, i64 1152
  %20 = load ptr, ptr %19, align 8, !tbaa !96
  %21 = tail call ptr @X509_new_ex(ptr noundef %18, ptr noundef %20) #6
  store ptr %21, ptr %4, align 8, !tbaa !80
  %22 = icmp eq ptr %21, null
  br i1 %22, label %23, label %24

23:                                               ; preds = %17
  tail call void @ERR_new() #6
  tail call void @ERR_set_debug(ptr noundef nonnull @.str, i32 noundef 332, ptr noundef nonnull @__func__.SSL_CTX_use_certificate_file) #6
  tail call void (i32, i32, ptr, ...) @ERR_set_error(i32 noundef 20, i32 noundef 524301, ptr noundef null) #6
  br label %40

24:                                               ; preds = %17
  switch i32 %2, label %33 [
    i32 2, label %25
    i32 1, label %27
  ]

25:                                               ; preds = %24
  %26 = call ptr @d2i_X509_bio(ptr noundef nonnull %9, ptr noundef nonnull %4) #6
  br label %34

27:                                               ; preds = %24
  %28 = getelementptr inbounds nuw i8, ptr %0, i64 184
  %29 = load ptr, ptr %28, align 8, !tbaa !101
  %30 = getelementptr inbounds nuw i8, ptr %0, i64 192
  %31 = load ptr, ptr %30, align 8, !tbaa !102
  %32 = call ptr @PEM_read_bio_X509(ptr noundef nonnull %9, ptr noundef nonnull %4, ptr noundef %29, ptr noundef %31) #6
  br label %34

33:                                               ; preds = %24
  tail call void @ERR_new() #6
  tail call void @ERR_set_debug(ptr noundef nonnull @.str, i32 noundef 343, ptr noundef nonnull @__func__.SSL_CTX_use_certificate_file) #6
  tail call void (i32, i32, ptr, ...) @ERR_set_error(i32 noundef 20, i32 noundef 124, ptr noundef null) #6
  br label %40

34:                                               ; preds = %27, %25
  %.018 = phi i32 [ 524301, %25 ], [ 524297, %27 ]
  %.0 = phi ptr [ %26, %25 ], [ %32, %27 ]
  %35 = icmp eq ptr %.0, null
  br i1 %35, label %36, label %37

36:                                               ; preds = %34
  call void @ERR_new() #6
  call void @ERR_set_debug(ptr noundef nonnull @.str, i32 noundef 347, ptr noundef nonnull @__func__.SSL_CTX_use_certificate_file) #6
  call void (i32, i32, ptr, ...) @ERR_set_error(i32 noundef 20, i32 noundef %.018, ptr noundef null) #6
  br label %40

37:                                               ; preds = %34
  %38 = load ptr, ptr %4, align 8, !tbaa !80
  %39 = call i32 @SSL_CTX_use_certificate(ptr noundef nonnull %0, ptr noundef %38)
  br label %40

40:                                               ; preds = %37, %36, %33, %23, %16, %11, %6
  %.017 = phi ptr [ null, %6 ], [ null, %11 ], [ %9, %16 ], [ %9, %23 ], [ %9, %36 ], [ %9, %37 ], [ %9, %33 ]
  %.016 = phi i32 [ 0, %6 ], [ 0, %11 ], [ 0, %16 ], [ 0, %23 ], [ 0, %36 ], [ %39, %37 ], [ 0, %33 ]
  %41 = load ptr, ptr %4, align 8, !tbaa !80
  call void @X509_free(ptr noundef %41) #6
  %42 = call i32 @BIO_free(ptr noundef %.017) #6
  call void @llvm.lifetime.end.p0(i64 8, ptr nonnull %4) #6
  ret i32 %.016
}